#include <math.h>
#include <stdio.h>
#include <stdlib.h>
#include <string.h>

int main()
{
char s[50],max[50],min[50];
while (scanf("%s",s)!=EOF)
{
  if (strlen(s)>strlen(max)) strcpy(max,s);
  if (strlen(s)<strlen(min)) strcpy(min,s); 
}
printf("%s\n%s",max,min);
return 0;
}