; ModuleID = '24/392.c'
source_filename = "24/392.c"
target datalayout = "e-m:e-p270:32:32-p271:32:32-p272:64:64-i64:64-f80:128-n8:16:32:64-S128"
target triple = "x86_64-pc-linux-gnu"

@.str = private unnamed_addr constant [3 x i8] c"%s\00", align 1
@.str.1 = private unnamed_addr constant [6 x i8] c"%s\0A%s\00", align 1

; Function Attrs: noinline nounwind uwtable
define dso_local i32 @main() #0 {
  %1 = alloca i32, align 4
  %2 = alloca [50 x i8], align 16
  %3 = alloca [50 x i8], align 16
  %4 = alloca [50 x i8], align 16
  store i32 0, i32* %1, align 4
  br label %5

5:                                                ; preds = %29, %0
  %6 = getelementptr inbounds [50 x i8], [50 x i8]* %2, i64 0, i64 0
  %7 = call i32 (i8*, ...) @__isoc99_scanf(i8* getelementptr inbounds ([3 x i8], [3 x i8]* @.str, i64 0, i64 0), i8* %6)
  %8 = icmp ne i32 %7, -1
  br i1 %8, label %9, label %30

9:                                                ; preds = %5
  %10 = getelementptr inbounds [50 x i8], [50 x i8]* %2, i64 0, i64 0
  %11 = call i64 @strlen(i8* %10) #4
  %12 = getelementptr inbounds [50 x i8], [50 x i8]* %3, i64 0, i64 0
  %13 = call i64 @strlen(i8* %12) #4
  %14 = icmp ugt i64 %11, %13
  br i1 %14, label %15, label %19

15:                                               ; preds = %9
  %16 = getelementptr inbounds [50 x i8], [50 x i8]* %3, i64 0, i64 0
  %17 = getelementptr inbounds [50 x i8], [50 x i8]* %2, i64 0, i64 0
  %18 = call i8* @strcpy(i8* %16, i8* %17) #5
  br label %19

19:                                               ; preds = %15, %9
  %20 = getelementptr inbounds [50 x i8], [50 x i8]* %2, i64 0, i64 0
  %21 = call i64 @strlen(i8* %20) #4
  %22 = getelementptr inbounds [50 x i8], [50 x i8]* %4, i64 0, i64 0
  %23 = call i64 @strlen(i8* %22) #4
  %24 = icmp ult i64 %21, %23
  br i1 %24, label %25, label %29

25:                                               ; preds = %19
  %26 = getelementptr inbounds [50 x i8], [50 x i8]* %4, i64 0, i64 0
  %27 = getelementptr inbounds [50 x i8], [50 x i8]* %2, i64 0, i64 0
  %28 = call i8* @strcpy(i8* %26, i8* %27) #5
  br label %29

29:                                               ; preds = %25, %19
  br label %5

30:                                               ; preds = %5
  %31 = getelementptr inbounds [50 x i8], [50 x i8]* %3, i64 0, i64 0
  %32 = getelementptr inbounds [50 x i8], [50 x i8]* %4, i64 0, i64 0
  %33 = call i32 (i8*, ...) @printf(i8* getelementptr inbounds ([6 x i8], [6 x i8]* @.str.1, i64 0, i64 0), i8* %31, i8* %32)
  ret i32 0
}

declare dso_local i32 @__isoc99_scanf(i8*, ...) #1

; Function Attrs: nounwind readonly
declare dso_local i64 @strlen(i8*) #2

; Function Attrs: nounwind
declare dso_local i8* @strcpy(i8*, i8*) #3

declare dso_local i32 @printf(i8*, ...) #1


!llvm.module.flags = !{!0}
!llvm.ident = !{!1}

!0 = !{i32 1, !"wchar_size", i32 4}
!1 = !{!"clang version 10.0.0-4ubuntu1 "}
